(lp0
(dp1
I0
(F0.628318530718
F0.9325760355695187
tp2
sa(dp3
I1
(F5.65486677646
F0.9325760355695187
tp4
sa(dp5
I10
(F0.855211333477
F0.8443279255020152
tp6
sa(dp7
I100
(F0.837758040957
F0.155744890433036
tp8
sa(dp9
I101
(F0.418879020479
F0.155744890433036
tp10
sa(dp11
I102
(F5.8643062867
F0.155744890433036
tp12
sa(dp13
I103
(F5.44542726622
F0.155744890433036
tp14
sa(dp15
I104
(F4.60766922527
F0.155744890433036
tp16
sa(dp17
I105
(F4.18879020479
F0.155744890433036
tp18
sa(dp19
I106
(F3.35103216383
F0.155744890433036
tp20
sa(dp21
I107
(F2.93215314335
F0.155744890433036
tp22
sa(dp23
I108
(F2.09439510239
F0.155744890433036
tp24
sa(dp25
I109
(F1.67551608191
F0.155744890433036
tp26
sa(dp27
I11
(F0.401425727959
F0.8443279255020152
tp28
sa(dp29
I110
(F1.0471975512
F0.06418396606458053
tp30
sa(dp31
I111
(F0.209439510239
F0.06418396606458053
tp32
sa(dp33
I112
(F6.07374579694
F0.06418396606458053
tp34
sa(dp35
I113
(F5.23598775598
F0.06418396606458053
tp36
sa(dp37
I114
(F4.8171087355
F0.06418396606458053
tp38
sa(dp39
I115
(F3.97935069455
F0.06418396606458053
tp40
sa(dp41
I116
(F3.56047167407
F0.06418396606458053
tp42
sa(dp43
I117
(F2.72271363311
F0.06418396606458053
tp44
sa(dp45
I118
(F2.30383461263
F0.06418396606458053
tp46
sa(dp47
I119
(F1.46607657168
F0.06418396606458053
tp48
sa(dp49
I12
(F5.88175957922
F0.8443279255020152
tp50
sa(dp51
I120
(F0.628318530718
F0.042573162788379595
tp52
sa(dp53
I121
(F5.65486677646
F0.042573162788379595
tp54
sa(dp55
I122
(F4.39822971503
F0.042573162788379595
tp56
sa(dp57
I123
(F3.14159265359
F0.042573162788379595
tp58
sa(dp59
I124
(F1.88495559215
F0.042573162788379595
tp60
sa(dp61
I125
(F0.0
F-0.04257316278837948
tp62
sa(dp63
I126
(F5.02654824574
F-0.04257316278837948
tp64
sa(dp65
I127
(F3.76991118431
F-0.04257316278837948
tp66
sa(dp67
I128
(F2.51327412287
F-0.04257316278837948
tp68
sa(dp69
I129
(F1.25663706144
F-0.04257316278837948
tp70
sa(dp71
I13
(F5.4279739737
F0.8443279255020152
tp72
sa(dp73
I130
(F0.837758040957
F-0.06418396606458063
tp74
sa(dp75
I131
(F0.418879020479
F-0.06418396606458063
tp76
sa(dp77
I132
(F5.8643062867
F-0.06418396606458063
tp78
sa(dp79
I133
(F5.44542726622
F-0.06418396606458063
tp80
sa(dp81
I134
(F4.60766922527
F-0.06418396606458063
tp82
sa(dp83
I135
(F4.18879020479
F-0.06418396606458063
tp84
sa(dp85
I136
(F3.35103216383
F-0.06418396606458063
tp86
sa(dp87
I137
(F2.93215314335
F-0.06418396606458063
tp88
sa(dp89
I138
(F2.09439510239
F-0.06418396606458063
tp90
sa(dp91
I139
(F1.67551608191
F-0.06418396606458063
tp92
sa(dp93
I14
(F4.62512251778
F0.8443279255020152
tp94
sa(dp95
I140
(F1.0471975512
F-0.15574489043303588
tp96
sa(dp97
I141
(F0.209439510239
F-0.15574489043303588
tp98
sa(dp99
I142
(F6.07374579694
F-0.15574489043303588
tp100
sa(dp101
I143
(F5.23598775598
F-0.15574489043303588
tp102
sa(dp103
I144
(F4.8171087355
F-0.15574489043303588
tp104
sa(dp105
I145
(F3.97935069455
F-0.15574489043303588
tp106
sa(dp107
I146
(F3.56047167407
F-0.15574489043303588
tp108
sa(dp109
I147
(F2.72271363311
F-0.15574489043303588
tp110
sa(dp111
I148
(F2.30383461263
F-0.15574489043303588
tp112
sa(dp113
I149
(F1.46607657168
F-0.15574489043303588
tp114
sa(dp115
I15
(F4.17133691227
F0.8443279255020152
tp116
sa(dp117
I150
(F0.628318530718
F-0.18755275319812936
tp118
sa(dp119
I151
(F5.65486677646
F-0.18755275319812936
tp120
sa(dp121
I152
(F4.39822971503
F-0.18755275319812936
tp122
sa(dp123
I153
(F3.14159265359
F-0.18755275319812936
tp124
sa(dp125
I154
(F1.88495559215
F-0.18755275319812936
tp126
sa(dp127
I155
(F0.0
F-0.2594933254150654
tp128
sa(dp129
I156
(F5.02654824574
F-0.2594933254150654
tp130
sa(dp131
I157
(F3.76991118431
F-0.2594933254150654
tp132
sa(dp133
I158
(F2.51327412287
F-0.2594933254150654
tp134
sa(dp135
I159
(F1.25663706144
F-0.2594933254150654
tp136
sa(dp137
I16
(F3.36848545635
F0.8443279255020152
tp138
sa(dp139
I160
(F0.837758040957
F-0.29520782695111897
tp140
sa(dp141
I161
(F0.418879020479
F-0.29520782695111897
tp142
sa(dp143
I162
(F5.8643062867
F-0.29520782695111897
tp144
sa(dp145
I163
(F5.44542726622
F-0.29520782695111897
tp146
sa(dp147
I164
(F4.60766922527
F-0.29520782695111897
tp148
sa(dp149
I165
(F4.18879020479
F-0.29520782695111897
tp150
sa(dp151
I166
(F3.35103216383
F-0.29520782695111897
tp152
sa(dp153
I167
(F2.93215314335
F-0.29520782695111897
tp154
sa(dp155
I168
(F2.09439510239
F-0.29520782695111897
tp156
sa(dp157
I169
(F1.67551608191
F-0.29520782695111897
tp158
sa(dp159
I17
(F2.91469985083
F0.8443279255020152
tp160
sa(dp161
I170
(F1.0471975512
F-0.3830059038388148
tp162
sa(dp163
I171
(F0.209439510239
F-0.3830059038388148
tp164
sa(dp165
I172
(F6.07374579694
F-0.3830059038388148
tp166
sa(dp167
I173
(F5.23598775598
F-0.3830059038388148
tp168
sa(dp169
I174
(F4.8171087355
F-0.3830059038388148
tp170
sa(dp171
I175
(F3.97935069455
F-0.3830059038388148
tp172
sa(dp173
I176
(F3.56047167407
F-0.3830059038388148
tp174
sa(dp175
I177
(F2.72271363311
F-0.3830059038388148
tp176
sa(dp177
I178
(F2.30383461263
F-0.3830059038388148
tp178
sa(dp179
I179
(F1.46607657168
F-0.3830059038388148
tp180
sa(dp181
I18
(F2.11184839491
F0.8443279255020152
tp182
sa(dp183
I180
(F0.628318530718
F-0.4178670738010765
tp184
sa(dp185
I181
(F5.65486677646
F-0.4178670738010765
tp186
sa(dp187
I182
(F4.39822971503
F-0.4178670738010765
tp188
sa(dp189
I183
(F3.14159265359
F-0.4178670738010765
tp190
sa(dp191
I184
(F1.88495559215
F-0.4178670738010765
tp192
sa(dp193
I185
(F0.837758040957
F-0.5168321909896172
tp194
sa(dp195
I186
(F0.418879020479
F-0.5168321909896172
tp196
sa(dp197
I187
(F5.8643062867
F-0.5168321909896172
tp198
sa(dp199
I188
(F5.44542726622
F-0.5168321909896172
tp200
sa(dp201
I189
(F4.60766922527
F-0.5168321909896172
tp202
sa(dp203
I19
(F1.65806278939
F0.8443279255020152
tp204
sa(dp205
I190
(F4.18879020479
F-0.5168321909896172
tp206
sa(dp207
I191
(F3.35103216383
F-0.5168321909896172
tp208
sa(dp209
I192
(F2.93215314335
F-0.5168321909896172
tp210
sa(dp211
I193
(F2.09439510239
F-0.5168321909896172
tp212
sa(dp213
I194
(F1.67551608191
F-0.5168321909896172
tp214
sa(dp215
I195
(F1.11701072128
F-0.5826904796685759
tp216
sa(dp217
I196
(F0.13962634016
F-0.5826904796685759
tp218
sa(dp219
I197
(F6.14355896702
F-0.5826904796685759
tp220
sa(dp221
I198
(F5.1661745859
F-0.5826904796685759
tp222
sa(dp223
I199
(F4.88692190558
F-0.5826904796685759
tp224
sa(dp225
I2
(F4.39822971503
F0.9325760355695187
tp226
sa(dp227
I20
(F0.0
F0.7946265862966114
tp228
sa(dp229
I200
(F3.90953752447
F-0.5826904796685759
tp230
sa(dp231
I201
(F3.63028484415
F-0.5826904796685759
tp232
sa(dp233
I202
(F2.65290046303
F-0.5826904796685759
tp234
sa(dp235
I203
(F2.37364778271
F-0.5826904796685759
tp236
sa(dp237
I204
(F1.3962634016
F-0.5826904796685759
tp238
sa(dp239
I205
(F0.628318530718
F-0.6256512030158456
tp240
sa(dp241
I206
(F5.65486677646
F-0.6256512030158456
tp242
sa(dp243
I207
(F4.39822971503
F-0.6256512030158456
tp244
sa(dp245
I208
(F3.14159265359
F-0.6256512030158456
tp246
sa(dp247
I209
(F1.88495559215
F-0.6256512030158456
tp248
sa(dp249
I21
(F5.02654824574
F0.7946265862966114
tp250
sa(dp251
I210
(F0.907571211037
F-0.703890763002799
tp252
sa(dp253
I211
(F0.349065850399
F-0.703890763002799
tp254
sa(dp255
I212
(F5.93411945678
F-0.703890763002799
tp256
sa(dp257
I213
(F5.37561409614
F-0.703890763002799
tp258
sa(dp259
I214
(F4.67748239534
F-0.703890763002799
tp260
sa(dp261
I215
(F4.11897703471
F-0.703890763002799
tp262
sa(dp263
I216
(F3.42084533391
F-0.703890763002799
tp264
sa(dp265
I217
(F2.86233997327
F-0.703890763002799
tp266
sa(dp267
I218
(F2.16420827247
F-0.703890763002799
tp268
sa(dp269
I219
(F1.60570291183
F-0.703890763002799
tp270
sa(dp271
I22
(F3.76991118431
F0.7946265862966114
tp272
sa(dp273
I220
(F1.25663706144
F-0.7399833821035141
tp274
sa(dp275
I221
(F0.0
F-0.7399833821035141
tp276
sa(dp277
I222
(F5.02654824574
F-0.7399833821035141
tp278
sa(dp279
I223
(F3.76991118431
F-0.7399833821035141
tp280
sa(dp281
I224
(F2.51327412287
F-0.7399833821035141
tp282
sa(dp283
I225
(F0.628318530718
F-0.7946265862966114
tp284
sa(dp285
I226
(F5.65486677646
F-0.7946265862966114
tp286
sa(dp287
I227
(F4.39822971503
F-0.7946265862966114
tp288
sa(dp289
I228
(F3.14159265359
F-0.7946265862966114
tp290
sa(dp291
I229
(F1.88495559215
F-0.7946265862966114
tp292
sa(dp293
I23
(F2.51327412287
F0.7946265862966114
tp294
sa(dp295
I230
(F1.02974425868
F-0.8443279255020151
tp296
sa(dp297
I231
(F0.226892802759
F-0.8443279255020151
tp298
sa(dp299
I232
(F6.05629250442
F-0.8443279255020151
tp300
sa(dp301
I233
(F5.2534410485
F-0.8443279255020151
tp302
sa(dp303
I234
(F4.79965544298
F-0.8443279255020151
tp304
sa(dp305
I235
(F3.99680398707
F-0.8443279255020151
tp306
sa(dp307
I236
(F3.54301838155
F-0.8443279255020151
tp308
sa(dp309
I237
(F2.74016692563
F-0.8443279255020151
tp310
sa(dp311
I238
(F2.28638132011
F-0.8443279255020151
tp312
sa(dp313
I239
(F1.4835298642
F-0.8443279255020151
tp314
sa(dp315
I24
(F1.25663706144
F0.7946265862966114
tp316
sa(dp317
I240
(F0.628318530718
F-0.9126202507843834
tp318
sa(dp319
I241
(F5.65486677646
F-0.9126202507843834
tp320
sa(dp321
I242
(F4.39822971503
F-0.9126202507843834
tp322
sa(dp323
I243
(F3.14159265359
F-0.9126202507843834
tp324
sa(dp325
I244
(F1.88495559215
F-0.9126202507843834
tp326
sa(dp327
I245
(F1.25663706144
F-0.9325760355695186
tp328
sa(dp329
I246
(F0.0
F-0.9325760355695186
tp330
sa(dp331
I247
(F5.02654824574
F-0.9325760355695186
tp332
sa(dp333
I248
(F3.76991118431
F-0.9325760355695186
tp334
sa(dp335
I249
(F2.51327412287
F-0.9325760355695186
tp336
sa(dp337
I25
(F0.628318530718
F0.7399833821035144
tp338
sa(dp339
I250
(F0.628318530718
F-0.9798550523842469
tp340
sa(dp341
I251
(F5.65486677646
F-0.9798550523842469
tp342
sa(dp343
I252
(F4.39822971503
F-0.9798550523842469
tp344
sa(dp345
I253
(F3.14159265359
F-0.9798550523842469
tp346
sa(dp347
I254
(F1.88495559215
F-0.9798550523842469
tp348
sa(dp349
I26
(F5.65486677646
F0.7399833821035144
tp350
sa(dp351
I27
(F4.39822971503
F0.7399833821035144
tp352
sa(dp353
I28
(F3.14159265359
F0.7399833821035144
tp354
sa(dp355
I29
(F1.88495559215
F0.7399833821035144
tp356
sa(dp357
I3
(F3.14159265359
F0.9325760355695187
tp358
sa(dp359
I30
(F0.977384381117
F0.7038907630027988
tp360
sa(dp361
I31
(F0.279252680319
F0.7038907630027988
tp362
sa(dp363
I32
(F6.00393262686
F0.7038907630027988
tp364
sa(dp365
I33
(F5.30580092606
F0.7038907630027988
tp366
sa(dp367
I34
(F4.74729556542
F0.7038907630027988
tp368
sa(dp369
I35
(F4.04916386463
F0.7038907630027988
tp370
sa(dp371
I36
(F3.49065850399
F0.7038907630027988
tp372
sa(dp373
I37
(F2.79252680319
F0.7038907630027988
tp374
sa(dp375
I38
(F2.23402144255
F0.7038907630027988
tp376
sa(dp377
I39
(F1.53588974176
F0.7038907630027988
tp378
sa(dp379
I4
(F1.88495559215
F0.9325760355695187
tp380
sa(dp381
I40
(F0.0
F0.6256512030158456
tp382
sa(dp383
I41
(F5.02654824574
F0.6256512030158456
tp384
sa(dp385
I42
(F3.76991118431
F0.6256512030158456
tp386
sa(dp387
I43
(F2.51327412287
F0.6256512030158456
tp388
sa(dp389
I44
(F1.25663706144
F0.6256512030158456
tp390
sa(dp391
I45
(F0.767944870878
F0.5826904796685761
tp392
sa(dp393
I46
(F0.488692190558
F0.5826904796685761
tp394
sa(dp395
I47
(F5.79449311662
F0.5826904796685761
tp396
sa(dp397
I48
(F5.5152404363
F0.5826904796685761
tp398
sa(dp399
I49
(F4.53785605519
F0.5826904796685761
tp400
sa(dp401
I5
(F0.0
F0.9126202507843834
tp402
sa(dp403
I50
(F4.25860337487
F0.5826904796685761
tp404
sa(dp405
I51
(F3.28121899375
F0.5826904796685761
tp406
sa(dp407
I52
(F3.00196631343
F0.5826904796685761
tp408
sa(dp409
I53
(F2.02458193231
F0.5826904796685761
tp410
sa(dp411
I54
(F1.74532925199
F0.5826904796685761
tp412
sa(dp413
I55
(F1.0471975512
F0.5168321909896169
tp414
sa(dp415
I56
(F0.209439510239
F0.5168321909896169
tp416
sa(dp417
I57
(F6.07374579694
F0.5168321909896169
tp418
sa(dp419
I58
(F5.23598775598
F0.5168321909896169
tp420
sa(dp421
I59
(F4.8171087355
F0.5168321909896169
tp422
sa(dp423
I6
(F5.02654824574
F0.9126202507843834
tp424
sa(dp425
I60
(F3.97935069455
F0.5168321909896169
tp426
sa(dp427
I61
(F3.56047167407
F0.5168321909896169
tp428
sa(dp429
I62
(F2.72271363311
F0.5168321909896169
tp430
sa(dp431
I63
(F2.30383461263
F0.5168321909896169
tp432
sa(dp433
I64
(F1.46607657168
F0.5168321909896169
tp434
sa(dp435
I65
(F0.0
F0.41786707380107685
tp436
sa(dp437
I66
(F5.02654824574
F0.41786707380107685
tp438
sa(dp439
I67
(F3.76991118431
F0.41786707380107685
tp440
sa(dp441
I68
(F2.51327412287
F0.41786707380107685
tp442
sa(dp443
I69
(F1.25663706144
F0.41786707380107685
tp444
sa(dp445
I7
(F3.76991118431
F0.9126202507843834
tp446
sa(dp447
I70
(F0.837758040957
F0.38300590383881505
tp448
sa(dp449
I71
(F0.418879020479
F0.38300590383881505
tp450
sa(dp451
I72
(F5.8643062867
F0.38300590383881505
tp452
sa(dp453
I73
(F5.44542726622
F0.38300590383881505
tp454
sa(dp455
I74
(F4.60766922527
F0.38300590383881505
tp456
sa(dp457
I75
(F4.18879020479
F0.38300590383881505
tp458
sa(dp459
I76
(F3.35103216383
F0.38300590383881505
tp460
sa(dp461
I77
(F2.93215314335
F0.38300590383881505
tp462
sa(dp463
I78
(F2.09439510239
F0.38300590383881505
tp464
sa(dp465
I79
(F1.67551608191
F0.38300590383881505
tp466
sa(dp467
I8
(F2.51327412287
F0.9126202507843834
tp468
sa(dp469
I80
(F1.0471975512
F0.2952078269511191
tp470
sa(dp471
I81
(F0.209439510239
F0.2952078269511191
tp472
sa(dp473
I82
(F6.07374579694
F0.2952078269511191
tp474
sa(dp475
I83
(F5.23598775598
F0.2952078269511191
tp476
sa(dp477
I84
(F4.8171087355
F0.2952078269511191
tp478
sa(dp479
I85
(F3.97935069455
F0.2952078269511191
tp480
sa(dp481
I86
(F3.56047167407
F0.2952078269511191
tp482
sa(dp483
I87
(F2.72271363311
F0.2952078269511191
tp484
sa(dp485
I88
(F2.30383461263
F0.2952078269511191
tp486
sa(dp487
I89
(F1.46607657168
F0.2952078269511191
tp488
sa(dp489
I9
(F1.25663706144
F0.9126202507843834
tp490
sa(dp491
I90
(F0.628318530718
F0.25949332541506553
tp492
sa(dp493
I91
(F5.65486677646
F0.25949332541506553
tp494
sa(dp495
I92
(F4.39822971503
F0.25949332541506553
tp496
sa(dp497
I93
(F3.14159265359
F0.25949332541506553
tp498
sa(dp499
I94
(F1.88495559215
F0.25949332541506553
tp500
sa(dp501
I95
(F0.0
F0.18755275319812947
tp502
sa(dp503
I96
(F5.02654824574
F0.18755275319812947
tp504
sa(dp505
I97
(F3.76991118431
F0.18755275319812947
tp506
sa(dp507
I98
(F2.51327412287
F0.18755275319812947
tp508
sa(dp509
I99
(F1.25663706144
F0.18755275319812947
tp510
sa.